; Function Attrs: nounwind sspstrong uwtable
define internal fastcc i64 @do_bind(i32 noundef %sockfd, i64 noundef %target_addr, i32 noundef %addrlen) unnamed_addr #2 {
entry:
  %cmp = icmp slt i32 %addrlen, 0
  br i1 %cmp, label %return, label %if.end

if.end:                                           ; preds = %entry
  %add = add nuw i32 %addrlen, 1
  %conv = zext i32 %add to i64
  %0 = alloca i8, i64 %conv, align 16
  %call = call fastcc i64 @target_to_host_sockaddr(i32 noundef %sockfd, ptr noundef %0, i64 noundef %target_addr, i32 noundef %addrlen)
  %tobool.not = icmp eq i64 %call, 0
  br i1 %tobool.not, label %if.end2, label %return

if.end2:                                          ; preds = %if.end
  %call3 = call i32 @bind(i32 noundef %sockfd, ptr nonnull %0, i32 noundef %addrlen) #27
  %conv4 = sext i32 %call3 to i64
  %cmp.i = icmp eq i32 %call3, -1
  br i1 %cmp.i, label %if.then.i, label %return

if.then.i:                                        ; preds = %if.end2
  %call.i = tail call ptr @__errno_location() #26
  %1 = load i32, ptr %call.i, align 4
  %sub.i = sub i32 0, %1
  %conv.i = sext i32 %sub.i to i64
  br label %return

return:                                           ; preds = %if.then.i, %if.end2, %if.end, %entry
  %retval.0 = phi i64 [ -22, %entry ], [ %call, %if.end ], [ %conv.i, %if.then.i ], [ %conv4, %if.end2 ]
  ret i64 %retval.0
}